   1              		.syntax unified
   2              		.cpu cortex-m3
   3              		.fpu softvfp
   4              		.eabi_attribute 20, 1
   5              		.eabi_attribute 21, 1
   6              		.eabi_attribute 23, 3
   7              		.eabi_attribute 24, 1
   8              		.eabi_attribute 25, 1
   9              		.eabi_attribute 26, 1
  10              		.eabi_attribute 30, 4
  11              		.eabi_attribute 18, 4
  12              		.thumb
  13              		.file	"efm32_gpio.c"
  14              		.text
  15              		.align	1
  16              		.thumb
  17              		.thumb_func
  19              	BITBAND_Peripheral:
  20              		@ args = 0, pretend = 0, frame = 0
  21              		@ frame_needed = 0, uses_anonymous_args = 0
  22              		@ link register save eliminated.
  23 0000 00F10470 		add	r0, r0, #34603008
  24 0004 01EBC000 		add	r0, r1, r0, lsl #3
  25 0008 8000     		lsls	r0, r0, #2
  26 000a 0260     		str	r2, [r0, #0]
  27 000c 7047     		bx	lr
  29              		.align	1
  30              		.global	GPIO_DbgLocationSet
  31              		.thumb
  32              		.thumb_func
  34              	GPIO_DbgLocationSet:
  35              		@ args = 0, pretend = 0, frame = 0
  36              		@ frame_needed = 0, uses_anonymous_args = 0
  37              		@ link register save eliminated.
  38 000e 054B     		ldr	r3, .L5
  39 0010 D3F82021 		ldr	r2, [r3, #288]
  40 0014 22F44072 		bic	r2, r2, #768
  41 0018 42EA0022 		orr	r2, r2, r0, lsl #8
  42 001c C3F82021 		str	r2, [r3, #288]
  43 0020 7047     		bx	lr
  44              	.L6:
  45 0022 00BF     		.align	2
  46              	.L5:
  47 0024 00600040 		.word	1073766400
  49              		.align	1
  50              		.global	GPIO_DriveModeSet
  51              		.thumb
  52              		.thumb_func
  54              	GPIO_DriveModeSet:
  55              		@ args = 0, pretend = 0, frame = 0
  56              		@ frame_needed = 0, uses_anonymous_args = 0
  57              		@ link register save eliminated.
  58 0028 2422     		movs	r2, #36
  59 002a 4243     		muls	r2, r0, r2
  60 002c 034B     		ldr	r3, .L9
  61 002e D058     		ldr	r0, [r2, r3]
  62 0030 20F00300 		bic	r0, r0, #3
  63 0034 0143     		orrs	r1, r1, r0
  64 0036 D150     		str	r1, [r2, r3]
  65 0038 7047     		bx	lr
  66              	.L10:
  67 003a 00BF     		.align	2
  68              	.L9:
  69 003c 00600040 		.word	1073766400
  71              		.align	1
  72              		.global	GPIO_IntConfig
  73              		.thumb
  74              		.thumb_func
  76              	GPIO_IntConfig:
  77              		@ args = 4, pretend = 0, frame = 0
  78              		@ frame_needed = 0, uses_anonymous_args = 0
  79 0040 2DE9F041 		push	{r4, r5, r6, r7, r8, lr}
  80 0044 0729     		cmp	r1, #7
  81 0046 1E46     		mov	r6, r3
  82 0048 0C46     		mov	r4, r1
  83 004a 9DF81850 		ldrb	r5, [sp, #24]	@ zero_extendqisi2
  84 004e 1A4B     		ldr	r3, .L16
  85 0050 0ED8     		bhi	.L12
  86 0052 8900     		lsls	r1, r1, #2
  87 0054 4FF00F0C 		mov	ip, #15
  88 0058 0CFA01FC 		lsl	ip, ip, r1
  89 005c 8840     		lsls	r0, r0, r1
  90 005e D3F80071 		ldr	r7, [r3, #256]
  91 0062 27EA0C0C 		bic	ip, r7, ip
  92 0066 4CEA0001 		orr	r1, ip, r0
  93 006a C3F80011 		str	r1, [r3, #256]
  94 006e 0EE0     		b	.L13
  95              	.L12:
  96 0070 0839     		subs	r1, r1, #8
  97 0072 8900     		lsls	r1, r1, #2
  98 0074 4FF00F0C 		mov	ip, #15
  99 0078 0CFA01FC 		lsl	ip, ip, r1
 100 007c 8840     		lsls	r0, r0, r1
 101 007e D3F80471 		ldr	r7, [r3, #260]
 102 0082 27EA0C0C 		bic	ip, r7, ip
 103 0086 4CEA0001 		orr	r1, ip, r0
 104 008a C3F80411 		str	r1, [r3, #260]
 105              	.L13:
 106 008e 2146     		mov	r1, r4
 107 0090 0A48     		ldr	r0, .L16+4
 108 0092 FFF7B5FF 		bl	BITBAND_Peripheral
 109 0096 2146     		mov	r1, r4
 110 0098 3246     		mov	r2, r6
 111 009a 0948     		ldr	r0, .L16+8
 112 009c FFF7B0FF 		bl	BITBAND_Peripheral
 113 00a0 0122     		movs	r2, #1
 114 00a2 A240     		lsls	r2, r2, r4
 115 00a4 044B     		ldr	r3, .L16
 116 00a6 0748     		ldr	r0, .L16+12
 117 00a8 C3F81C21 		str	r2, [r3, #284]
 118 00ac 2146     		mov	r1, r4
 119 00ae 2A46     		mov	r2, r5
 120 00b0 BDE8F041 		pop	{r4, r5, r6, r7, r8, lr}
 121 00b4 A4E7     		b	BITBAND_Peripheral
 122              	.L17:
 123 00b6 00BF     		.align	2
 124              	.L16:
 125 00b8 00600040 		.word	1073766400
 126 00bc 08610040 		.word	1073766664
 127 00c0 0C610040 		.word	1073766668
 128 00c4 10610040 		.word	1073766672
 130              		.align	1
 131              		.global	GPIO_PinInGet
 132              		.thumb
 133              		.thumb_func
 135              	GPIO_PinInGet:
 136              		@ args = 0, pretend = 0, frame = 0
 137              		@ frame_needed = 0, uses_anonymous_args = 0
 138              		@ link register save eliminated.
 139 00c8 2423     		movs	r3, #36
 140 00ca 4343     		muls	r3, r0, r3
 141 00cc 03F18043 		add	r3, r3, #1073741824
 142 00d0 03F5C043 		add	r3, r3, #24576
 143 00d4 D869     		ldr	r0, [r3, #28]
 144 00d6 C840     		lsrs	r0, r0, r1
 145 00d8 00F00100 		and	r0, r0, #1
 146 00dc 7047     		bx	lr
 148              		.align	1
 149              		.global	GPIO_PinModeSet
 150              		.thumb
 151              		.thumb_func
 153              	GPIO_PinModeSet:
 154              		@ args = 0, pretend = 0, frame = 0
 155              		@ frame_needed = 0, uses_anonymous_args = 0
 156 00de 70B5     		push	{r4, r5, r6, lr}
 157 00e0 1446     		mov	r4, r2
 158 00e2 9AB1     		cbz	r2, .L21
 159 00e4 4BB1     		cbz	r3, .L22
 160 00e6 0125     		movs	r5, #1
 161 00e8 8D40     		lsls	r5, r5, r1
 162 00ea 2422     		movs	r2, #36
 163 00ec 4243     		muls	r2, r0, r2
 164 00ee 02F18042 		add	r2, r2, #1073741824
 165 00f2 02F5C042 		add	r2, r2, #24576
 166 00f6 1561     		str	r5, [r2, #16]
 167 00f8 08E0     		b	.L21
 168              	.L22:
 169 00fa 0125     		movs	r5, #1
 170 00fc 8D40     		lsls	r5, r5, r1
 171 00fe 2422     		movs	r2, #36
 172 0100 4243     		muls	r2, r0, r2
 173 0102 02F18042 		add	r2, r2, #1073741824
 174 0106 02F5C042 		add	r2, r2, #24576
 175 010a 5561     		str	r5, [r2, #20]
 176              	.L21:
 177 010c 0729     		cmp	r1, #7
 178 010e 13D8     		bhi	.L23
 179 0110 4FEA810C 		lsl	ip, r1, #2
 180 0114 0F25     		movs	r5, #15
 181 0116 05FA0CF5 		lsl	r5, r5, ip
 182 011a 04FA0CFC 		lsl	ip, r4, ip
 183 011e 2422     		movs	r2, #36
 184 0120 4243     		muls	r2, r0, r2
 185 0122 02F18042 		add	r2, r2, #1073741824
 186 0126 02F5C042 		add	r2, r2, #24576
 187 012a 5668     		ldr	r6, [r2, #4]
 188 012c 26EA0505 		bic	r5, r6, r5
 189 0130 45EA0C05 		orr	r5, r5, ip
 190 0134 5560     		str	r5, [r2, #4]
 191 0136 16E0     		b	.L24
 192              	.L23:
 193 0138 01F1804C 		add	ip, r1, #1073741824
 194 013c ACF1080C 		sub	ip, ip, #8
 195 0140 4FEA8C0C 		lsl	ip, ip, #2
 196 0144 0F25     		movs	r5, #15
 197 0146 05FA0CF5 		lsl	r5, r5, ip
 198 014a 04FA0CFC 		lsl	ip, r4, ip
 199 014e 2422     		movs	r2, #36
 200 0150 4243     		muls	r2, r0, r2
 201 0152 02F18042 		add	r2, r2, #1073741824
 202 0156 02F5C042 		add	r2, r2, #24576
 203 015a 9668     		ldr	r6, [r2, #8]
 204 015c 26EA0505 		bic	r5, r6, r5
 205 0160 45EA0C05 		orr	r5, r5, ip
 206 0164 9560     		str	r5, [r2, #8]
 207              	.L24:
 208 0166 ACB9     		cbnz	r4, .L27
 209 0168 53B1     		cbz	r3, .L26
 210 016a 0123     		movs	r3, #1
 211 016c 13FA01F1 		lsls	r1, r3, r1
 212 0170 2333     		adds	r3, r3, #35
 213 0172 5843     		muls	r0, r3, r0
 214 0174 00F18040 		add	r0, r0, #1073741824
 215 0178 00F5C040 		add	r0, r0, #24576
 216 017c 0161     		str	r1, [r0, #16]
 217 017e 70BD     		pop	{r4, r5, r6, pc}
 218              	.L26:
 219 0180 0123     		movs	r3, #1
 220 0182 13FA01F1 		lsls	r1, r3, r1
 221 0186 2333     		adds	r3, r3, #35
 222 0188 5843     		muls	r0, r3, r0
 223 018a 00F18040 		add	r0, r0, #1073741824
 224 018e 00F5C040 		add	r0, r0, #24576
 225 0192 4161     		str	r1, [r0, #20]
 226              	.L27:
 227 0194 70BD     		pop	{r4, r5, r6, pc}
 229              		.align	1
 230              		.global	GPIO_PinOutClear
 231              		.thumb
 232              		.thumb_func
 234              	GPIO_PinOutClear:
 235              		@ args = 0, pretend = 0, frame = 0
 236              		@ frame_needed = 0, uses_anonymous_args = 0
 237              		@ link register save eliminated.
 238 0196 0123     		movs	r3, #1
 239 0198 8B40     		lsls	r3, r3, r1
 240 019a 2422     		movs	r2, #36
 241 019c 4243     		muls	r2, r0, r2
 242 019e 02F18042 		add	r2, r2, #1073741824
 243 01a2 02F5C042 		add	r2, r2, #24576
 244 01a6 5361     		str	r3, [r2, #20]
 245 01a8 7047     		bx	lr
 247              		.align	1
 248              		.global	GPIO_PinOutGet
 249              		.thumb
 250              		.thumb_func
 252              	GPIO_PinOutGet:
 253              		@ args = 0, pretend = 0, frame = 0
 254              		@ frame_needed = 0, uses_anonymous_args = 0
 255              		@ link register save eliminated.
 256 01aa 2423     		movs	r3, #36
 257 01ac 4343     		muls	r3, r0, r3
 258 01ae 03F18043 		add	r3, r3, #1073741824
 259 01b2 03F5C043 		add	r3, r3, #24576
 260 01b6 D868     		ldr	r0, [r3, #12]
 261 01b8 C840     		lsrs	r0, r0, r1
 262 01ba 00F00100 		and	r0, r0, #1
 263 01be 7047     		bx	lr
 265              		.align	1
 266              		.global	GPIO_PinOutSet
 267              		.thumb
 268              		.thumb_func
 270              	GPIO_PinOutSet:
 271              		@ args = 0, pretend = 0, frame = 0
 272              		@ frame_needed = 0, uses_anonymous_args = 0
 273              		@ link register save eliminated.
 274 01c0 0123     		movs	r3, #1
 275 01c2 8B40     		lsls	r3, r3, r1
 276 01c4 2422     		movs	r2, #36
 277 01c6 4243     		muls	r2, r0, r2
 278 01c8 02F18042 		add	r2, r2, #1073741824
 279 01cc 02F5C042 		add	r2, r2, #24576
 280 01d0 1361     		str	r3, [r2, #16]
 281 01d2 7047     		bx	lr
 283              		.align	1
 284              		.global	GPIO_PinOutToggle
 285              		.thumb
 286              		.thumb_func
 288              	GPIO_PinOutToggle:
 289              		@ args = 0, pretend = 0, frame = 0
 290              		@ frame_needed = 0, uses_anonymous_args = 0
 291              		@ link register save eliminated.
 292 01d4 0123     		movs	r3, #1
 293 01d6 8B40     		lsls	r3, r3, r1
 294 01d8 2422     		movs	r2, #36
 295 01da 4243     		muls	r2, r0, r2
 296 01dc 02F18042 		add	r2, r2, #1073741824
 297 01e0 02F5C042 		add	r2, r2, #24576
 298 01e4 9361     		str	r3, [r2, #24]
 299 01e6 7047     		bx	lr
 301              		.align	1
 302              		.global	GPIO_PortInGet
 303              		.thumb
 304              		.thumb_func
 306              	GPIO_PortInGet:
 307              		@ args = 0, pretend = 0, frame = 0
 308              		@ frame_needed = 0, uses_anonymous_args = 0
 309              		@ link register save eliminated.
 310 01e8 2423     		movs	r3, #36
 311 01ea 4343     		muls	r3, r0, r3
 312 01ec 03F18043 		add	r3, r3, #1073741824
 313 01f0 03F5C043 		add	r3, r3, #24576
 314 01f4 D869     		ldr	r0, [r3, #28]
 315 01f6 80B2     		uxth	r0, r0
 316 01f8 7047     		bx	lr
 318              		.align	1
 319              		.global	GPIO_PortOutClear
 320              		.thumb
 321              		.thumb_func
 323              	GPIO_PortOutClear:
 324              		@ args = 0, pretend = 0, frame = 0
 325              		@ frame_needed = 0, uses_anonymous_args = 0
 326              		@ link register save eliminated.
 327 01fa 2423     		movs	r3, #36
 328 01fc 4343     		muls	r3, r0, r3
 329 01fe 03F18043 		add	r3, r3, #1073741824
 330 0202 89B2     		uxth	r1, r1
 331 0204 03F5C043 		add	r3, r3, #24576
 332 0208 5961     		str	r1, [r3, #20]
 333 020a 7047     		bx	lr
 335              		.align	1
 336              		.global	GPIO_PortOutGet
 337              		.thumb
 338              		.thumb_func
 340              	GPIO_PortOutGet:
 341              		@ args = 0, pretend = 0, frame = 0
 342              		@ frame_needed = 0, uses_anonymous_args = 0
 343              		@ link register save eliminated.
 344 020c 2423     		movs	r3, #36
 345 020e 4343     		muls	r3, r0, r3
 346 0210 03F18043 		add	r3, r3, #1073741824
 347 0214 03F5C043 		add	r3, r3, #24576
 348 0218 D868     		ldr	r0, [r3, #12]
 349 021a 80B2     		uxth	r0, r0
 350 021c 7047     		bx	lr
 352              		.align	1
 353              		.global	GPIO_PortOutSet
 354              		.thumb
 355              		.thumb_func
 357              	GPIO_PortOutSet:
 358              		@ args = 0, pretend = 0, frame = 0
 359              		@ frame_needed = 0, uses_anonymous_args = 0
 360              		@ link register save eliminated.
 361 021e 2423     		movs	r3, #36
 362 0220 4343     		muls	r3, r0, r3
 363 0222 03F18043 		add	r3, r3, #1073741824
 364 0226 89B2     		uxth	r1, r1
 365 0228 03F5C043 		add	r3, r3, #24576
 366 022c 1961     		str	r1, [r3, #16]
 367 022e 7047     		bx	lr
 369              		.align	1
 370              		.global	GPIO_PortOutSetVal
 371              		.thumb
 372              		.thumb_func
 374              	GPIO_PortOutSetVal:
 375              		@ args = 0, pretend = 0, frame = 0
 376              		@ frame_needed = 0, uses_anonymous_args = 0
 377              		@ link register save eliminated.
 378 0230 2423     		movs	r3, #36
 379 0232 4343     		muls	r3, r0, r3
 380 0234 03F18043 		add	r3, r3, #1073741824
 381 0238 03F5C043 		add	r3, r3, #24576
 382 023c D868     		ldr	r0, [r3, #12]
 383 023e 20EA0200 		bic	r0, r0, r2
 384 0242 0A40     		ands	r2, r2, r1
 385 0244 1043     		orrs	r0, r0, r2
 386 0246 D860     		str	r0, [r3, #12]
 387 0248 7047     		bx	lr
 389              		.align	1
 390              		.global	GPIO_PortOutToggle
 391              		.thumb
 392              		.thumb_func
 394              	GPIO_PortOutToggle:
 395              		@ args = 0, pretend = 0, frame = 0
 396              		@ frame_needed = 0, uses_anonymous_args = 0
 397              		@ link register save eliminated.
 398 024a 2423     		movs	r3, #36
 399 024c 4343     		muls	r3, r0, r3
 400 024e 03F18043 		add	r3, r3, #1073741824
 401 0252 89B2     		uxth	r1, r1
 402 0254 03F5C043 		add	r3, r3, #24576
 403 0258 9961     		str	r1, [r3, #24]
 404 025a 7047     		bx	lr
 406              		.ident	"GCC: (Sourcery G++ Lite 2010q1-188) 4.4.1"