   1              		.syntax unified
   2              		.cpu cortex-m3
   3              		.fpu softvfp
   4              		.eabi_attribute 20, 1
   5              		.eabi_attribute 21, 1
   6              		.eabi_attribute 23, 3
   7              		.eabi_attribute 24, 1
   8              		.eabi_attribute 25, 1
   9              		.eabi_attribute 26, 1
  10              		.eabi_attribute 30, 4
  11              		.eabi_attribute 18, 4
  12              		.thumb
  13              		.file	"system_efm32.c"
  14              		.text
  15              		.align	1
  16              		.global	SystemHFClockGet
  17              		.thumb
  18              		.thumb_func
  20              	SystemHFClockGet:
  21              		@ args = 0, pretend = 0, frame = 0
  22              		@ frame_needed = 0, uses_anonymous_args = 0
  23              		@ link register save eliminated.
  24 0000 1D4A     		ldr	r2, .L24
  25 0002 D36A     		ldr	r3, [r2, #44]
  26 0004 03F47053 		and	r3, r3, #15360
  27 0008 B3F5805F 		cmp	r3, #4096
  28 000c 06D0     		beq	.L4
  29 000e B3F5005F 		cmp	r3, #8192
  30 0012 06D0     		beq	.L5
  31 0014 B3F5006F 		cmp	r3, #2048
  32 0018 09D1     		bne	.L16
  33 001a 05E0     		b	.L21
  34              	.L4:
  35 001c 4FF40040 		mov	r0, #32768
  36 0020 7047     		bx	lr
  37              	.L5:
  38 0022 164B     		ldr	r3, .L24+4
  39 0024 1868     		ldr	r0, [r3, #0]
  40 0026 7047     		bx	lr
  41              	.L21:
  42 0028 144B     		ldr	r3, .L24+4
  43 002a 5868     		ldr	r0, [r3, #4]
  44 002c 7047     		bx	lr
  45              	.L16:
  46 002e D368     		ldr	r3, [r2, #12]
  47 0030 03F4E063 		and	r3, r3, #1792
  48 0034 B3F5007F 		cmp	r3, #512
  49 0038 15D0     		beq	.L10
  50 003a 04D8     		bhi	.L14
  51 003c BBB1     		cbz	r3, .L8
  52 003e B3F5807F 		cmp	r3, #256
  53 0042 16D1     		bne	.L7
  54 0044 11E0     		b	.L22
  55              	.L14:
  56 0046 B3F5806F 		cmp	r3, #1024
  57 004a 06D0     		beq	.L12
  58 004c B3F5A06F 		cmp	r3, #1280
  59 0050 05D0     		beq	.L13
  60 0052 B3F5407F 		cmp	r3, #768
  61 0056 0CD1     		bne	.L7
  62 0058 03E0     		b	.L23
  63              	.L12:
  64 005a 0948     		ldr	r0, .L24+8
  65 005c 7047     		bx	lr
  66              	.L13:
  67 005e 0948     		ldr	r0, .L24+12
  68 0060 7047     		bx	lr
  69              	.L23:
  70 0062 0948     		ldr	r0, .L24+16
  71 0064 7047     		bx	lr
  72              	.L10:
  73 0066 0948     		ldr	r0, .L24+20
  74 0068 7047     		bx	lr
  75              	.L22:
  76 006a 0948     		ldr	r0, .L24+24
  77 006c 7047     		bx	lr
  78              	.L8:
  79 006e 0948     		ldr	r0, .L24+28
  80 0070 7047     		bx	lr
  81              	.L7:
  82 0072 0020     		movs	r0, #0
  83 0074 7047     		bx	lr
  84              	.L25:
  85 0076 00BF     		.align	2
  86              	.L24:
  87 0078 00800C40 		.word	1074561024
  88 007c 00000000 		.word	.LANCHOR0
  89 0080 406F4001 		.word	21000000
  90 0084 003FAB01 		.word	28000000
  91 0088 809FD500 		.word	14000000
  92 008c C0D8A700 		.word	11000000
  93 0090 C0CF6A00 		.word	7000000
  94 0094 40420F00 		.word	1000000
  96              		.align	1
  97              		.global	SystemCoreClockGet
  98              		.thumb
  99              		.thumb_func
 101              	SystemCoreClockGet:
 102              		@ args = 0, pretend = 0, frame = 0
 103              		@ frame_needed = 0, uses_anonymous_args = 0
 104 0098 08B5     		push	{r3, lr}
 105 009a FFF7FEFF 		bl	SystemHFClockGet
 106 009e 044B     		ldr	r3, .L28
 107 00a0 5B68     		ldr	r3, [r3, #4]
 108 00a2 03F00F03 		and	r3, r3, #15
 109 00a6 D840     		lsrs	r0, r0, r3
 110 00a8 024B     		ldr	r3, .L28+4
 111 00aa 1860     		str	r0, [r3, #0]
 112 00ac 08BD     		pop	{r3, pc}
 113              	.L29:
 114 00ae 00BF     		.align	2
 115              	.L28:
 116 00b0 00800C40 		.word	1074561024
 117 00b4 00000000 		.word	SystemCoreClock
 119              		.align	1
 120              		.global	SystemHFXOClockGet
 121              		.thumb
 122              		.thumb_func
 124              	SystemHFXOClockGet:
 125              		@ args = 0, pretend = 0, frame = 0
 126              		@ frame_needed = 0, uses_anonymous_args = 0
 127              		@ link register save eliminated.
 128 00b8 014B     		ldr	r3, .L32
 129 00ba 5868     		ldr	r0, [r3, #4]
 130 00bc 7047     		bx	lr
 131              	.L33:
 132 00be 00BF     		.align	2
 133              	.L32:
 134 00c0 00000000 		.word	.LANCHOR0
 136              		.align	1
 137              		.global	SystemHFXOClockSet
 138              		.thumb
 139              		.thumb_func
 141              	SystemHFXOClockSet:
 142              		@ args = 0, pretend = 0, frame = 0
 143              		@ frame_needed = 0, uses_anonymous_args = 0
 144              		@ link register save eliminated.
 145 00c4 044B     		ldr	r3, .L37
 146 00c6 5860     		str	r0, [r3, #4]
 147 00c8 044B     		ldr	r3, .L37+4
 148 00ca DB6A     		ldr	r3, [r3, #44]
 149 00cc 13F4006F 		tst	r3, #2048
 150 00d0 00D0     		beq	.L36
 151 00d2 FEE7     		b	SystemCoreClockGet
 152              	.L36:
 153 00d4 7047     		bx	lr
 154              	.L38:
 155 00d6 00BF     		.align	2
 156              	.L37:
 157 00d8 00000000 		.word	.LANCHOR0
 158 00dc 00800C40 		.word	1074561024
 160              		.align	1
 161              		.global	SystemInit
 162              		.thumb
 163              		.thumb_func
 165              	SystemInit:
 166              		@ args = 0, pretend = 0, frame = 0
 167              		@ frame_needed = 0, uses_anonymous_args = 0
 168              		@ link register save eliminated.
 169 00e0 7047     		bx	lr
 171              		.align	1
 172              		.global	SystemLFRCOClockGet
 173              		.thumb
 174              		.thumb_func
 176              	SystemLFRCOClockGet:
 177              		@ args = 0, pretend = 0, frame = 0
 178              		@ frame_needed = 0, uses_anonymous_args = 0
 179              		@ link register save eliminated.
 180 00e2 4FF40040 		mov	r0, #32768
 181 00e6 7047     		bx	lr
 183              		.align	1
 184              		.global	SystemLFXOClockGet
 185              		.thumb
 186              		.thumb_func
 188              	SystemLFXOClockGet:
 189              		@ args = 0, pretend = 0, frame = 0
 190              		@ frame_needed = 0, uses_anonymous_args = 0
 191              		@ link register save eliminated.
 192 00e8 014B     		ldr	r3, .L45
 193 00ea 1868     		ldr	r0, [r3, #0]
 194 00ec 7047     		bx	lr
 195              	.L46:
 196 00ee 00BF     		.align	2
 197              	.L45:
 198 00f0 00000000 		.word	.LANCHOR0
 200              		.align	1
 201              		.global	SystemLFXOClockSet
 202              		.thumb
 203              		.thumb_func
 205              	SystemLFXOClockSet:
 206              		@ args = 0, pretend = 0, frame = 0
 207              		@ frame_needed = 0, uses_anonymous_args = 0
 208              		@ link register save eliminated.
 209 00f4 044B     		ldr	r3, .L50
 210 00f6 1860     		str	r0, [r3, #0]
 211 00f8 044B     		ldr	r3, .L50+4
 212 00fa DB6A     		ldr	r3, [r3, #44]
 213 00fc 13F4005F 		tst	r3, #8192
 214 0100 00D0     		beq	.L49
 215 0102 FEE7     		b	SystemCoreClockGet
 216              	.L49:
 217 0104 7047     		bx	lr
 218              	.L51:
 219 0106 00BF     		.align	2
 220              	.L50:
 221 0108 00000000 		.word	.LANCHOR0
 222 010c 00800C40 		.word	1074561024
 224              		.comm	SystemCoreClock,4,4
 225              		.data
 226              		.align	2
 227              		.set	.LANCHOR0,. + 0
 230              	SystemLFXOClock:
 231 0000 00800000 		.word	32768
 234              	SystemHFXOClock:
 235 0004 0048E801 		.word	32000000
 236              		.ident	"GCC: (Sourcery G++ Lite 2010q1-188) 4.4.1"